target datalayout = "e-m:e-p270:32:32-p271:32:32-p272:64:64-i64:64-i128:128-f80:128-n8:16:32:64-S128"
target triple = "x86_64-pc-linux-gnu"

%"class.std::vector.3" = type { %"struct.std::_Vector_base.4" }
%"struct.std::_Vector_base.4" = type { %"struct.std::_Vector_base<zxing::Ref<zxing::Result>, std::allocator<zxing::Ref<zxing::Result>>>::_Vector_impl" }
%"struct.std::_Vector_base<zxing::Ref<zxing::Result>, std::allocator<zxing::Ref<zxing::Result>>>::_Vector_impl" = type { %"struct.std::_Vector_base<zxing::Ref<zxing::Result>, std::allocator<zxing::Ref<zxing::Result>>>::_Vector_impl_data" }
%"struct.std::_Vector_base<zxing::Ref<zxing::Result>, std::allocator<zxing::Ref<zxing::Result>>>::_Vector_impl_data" = type { ptr, ptr, ptr }
%"class.cv::wechat_qrcode::DecoderMgr" = type { %"class.zxing::Ref", %"class.zxing::DecodeHints", %"class.zxing::Ref.8", %"class.cv::wechat_qrcode::BinarizerMgr" }
%"class.zxing::Ref" = type { ptr }
%"class.zxing::DecodeHints" = type { i8 }
%"class.zxing::Ref.8" = type { ptr }
%"class.cv::wechat_qrcode::BinarizerMgr" = type { i32, i32, %"class.std::vector.9" }
%"class.std::vector.9" = type { %"struct.std::_Vector_base.10" }
%"struct.std::_Vector_base.10" = type { %"struct.std::_Vector_base<cv::wechat_qrcode::BinarizerMgr::BINARIZER, std::allocator<cv::wechat_qrcode::BinarizerMgr::BINARIZER>>::_Vector_impl" }
%"struct.std::_Vector_base<cv::wechat_qrcode::BinarizerMgr::BINARIZER, std::allocator<cv::wechat_qrcode::BinarizerMgr::BINARIZER>>::_Vector_impl" = type { %"struct.std::_Vector_base<cv::wechat_qrcode::BinarizerMgr::BINARIZER, std::allocator<cv::wechat_qrcode::BinarizerMgr::BINARIZER>>::_Vector_impl_data" }
%"struct.std::_Vector_base<cv::wechat_qrcode::BinarizerMgr::BINARIZER, std::allocator<cv::wechat_qrcode::BinarizerMgr::BINARIZER>>::_Vector_impl_data" = type { ptr, ptr, ptr }
%"class.zxing::Ref.54" = type { ptr }
%"class.zxing::Counted" = type <{ ptr, i32, [4 x i8] }>

; Function Attrs: mustprogress nounwind uwtable
define linkonce_odr hidden noundef ptr @_ZN5zxing7Counted6retainEv(ptr noundef nonnull align 8 dereferenceable(12) %0) #2 comdat align 2 {
  %2 = alloca ptr, align 8
  store ptr %0, ptr %2, align 8
  %3 = load ptr, ptr %2, align 8
  %4 = getelementptr inbounds %"class.zxing::Counted", ptr %3, i32 0, i32 1
  %5 = load i32, ptr %4, align 8
  %6 = add i32 %5, 1
  store i32 %6, ptr %4, align 8
  ret ptr %3
}

; Function Attrs: mustprogress nounwind uwtable
define linkonce_odr hidden void @_ZN5zxing7Counted7releaseEv(ptr noundef nonnull align 8 dereferenceable(12) %0) #2 comdat align 2 {
  %2 = alloca ptr, align 8
  store ptr %0, ptr %2, align 8
  %3 = load ptr, ptr %2, align 8
  %4 = getelementptr inbounds %"class.zxing::Counted", ptr %3, i32 0, i32 1
  %5 = load i32, ptr %4, align 8
  %6 = add i32 %5, -1
  store i32 %6, ptr %4, align 8
  %7 = getelementptr inbounds %"class.zxing::Counted", ptr %3, i32 0, i32 1
  %8 = load i32, ptr %7, align 8
  %9 = icmp eq i32 %8, 0
  br i1 %9, label %10, label %18

10:                                               ; preds = %1
  %11 = getelementptr inbounds %"class.zxing::Counted", ptr %3, i32 0, i32 1
  store i32 -559026175, ptr %11, align 8
  %12 = icmp eq ptr %3, null
  br i1 %12, label %17, label %13

13:                                               ; preds = %10
  %14 = load ptr, ptr %3, align 8
  %15 = getelementptr inbounds ptr, ptr %14, i64 1
  %16 = load ptr, ptr %15, align 8
  call void %16(ptr noundef nonnull align 8 dereferenceable(12) %3) #3
  br label %17

17:                                               ; preds = %13, %10
  br label %18

18:                                               ; preds = %17, %1
  ret void
}

; Function Attrs: mustprogress nounwind uwtable
define linkonce_odr hidden void @_ZN5zxing3RefINS_12BinaryBitmapEE5resetEPS1_(ptr noundef nonnull align 8 dereferenceable(8) %0, ptr noundef %1) #2 comdat align 2 {
  %3 = alloca ptr, align 8
  %4 = alloca ptr, align 8
  store ptr %0, ptr %3, align 8
  store ptr %1, ptr %4, align 8
  %5 = load ptr, ptr %3, align 8
  %6 = load ptr, ptr %4, align 8
  %7 = icmp ne ptr %6, null
  br i1 %7, label %8, label %11

8:                                                ; preds = %2
  %9 = load ptr, ptr %4, align 8
  %10 = call noundef ptr @_ZN5zxing7Counted6retainEv(ptr noundef nonnull align 8 dereferenceable(12) %9)
  br label %11

11:                                               ; preds = %8, %2
  %12 = getelementptr inbounds %"class.zxing::Ref.54", ptr %5, i32 0, i32 0
  %13 = load ptr, ptr %12, align 8
  %14 = icmp ne ptr %13, null
  br i1 %14, label %15, label %18

15:                                               ; preds = %11
  %16 = getelementptr inbounds %"class.zxing::Ref.54", ptr %5, i32 0, i32 0
  %17 = load ptr, ptr %16, align 8
  call void @_ZN5zxing7Counted7releaseEv(ptr noundef nonnull align 8 dereferenceable(12) %17)
  br label %18

18:                                               ; preds = %15, %11
  %19 = load ptr, ptr %4, align 8
  %20 = getelementptr inbounds %"class.zxing::Ref.54", ptr %5, i32 0, i32 0
  store ptr %19, ptr %20, align 8
  ret void
}

; Function Attrs: mustprogress nounwind uwtable
define linkonce_odr hidden void @_ZN5zxing3RefINS_12BinaryBitmapEED2Ev(ptr noundef nonnull align 8 dereferenceable(8) %0) unnamed_addr #2 comdat align 2 {
  %2 = alloca ptr, align 8
  store ptr %0, ptr %2, align 8
  %3 = load ptr, ptr %2, align 8
  %4 = getelementptr inbounds %"class.zxing::Ref.54", ptr %3, i32 0, i32 0
  %5 = load ptr, ptr %4, align 8
  %6 = icmp ne ptr %5, null
  br i1 %6, label %7, label %10

7:                                                ; preds = %1
  %8 = getelementptr inbounds %"class.zxing::Ref.54", ptr %3, i32 0, i32 0
  %9 = load ptr, ptr %8, align 8
  call void @_ZN5zxing7Counted7releaseEv(ptr noundef nonnull align 8 dereferenceable(12) %9)
  br label %10

10:                                               ; preds = %7, %1
  ret void
}

; Function Attrs: mustprogress nounwind uwtable
define linkonce_odr hidden void @_ZN5zxing3RefINS_12BinaryBitmapEEC2ERKS2_(ptr noundef nonnull align 8 dereferenceable(8) %0, ptr noundef nonnull align 8 dereferenceable(8) %1) unnamed_addr #2 comdat align 2 {
  %3 = alloca ptr, align 8
  %4 = alloca ptr, align 8
  store ptr %0, ptr %3, align 8
  store ptr %1, ptr %4, align 8
  %5 = load ptr, ptr %3, align 8
  %6 = getelementptr inbounds %"class.zxing::Ref.54", ptr %5, i32 0, i32 0
  store ptr null, ptr %6, align 8
  %7 = load ptr, ptr %4, align 8
  %8 = getelementptr inbounds %"class.zxing::Ref.54", ptr %7, i32 0, i32 0
  %9 = load ptr, ptr %8, align 8
  call void @_ZN5zxing3RefINS_12BinaryBitmapEE5resetEPS1_(ptr noundef nonnull align 8 dereferenceable(8) %5, ptr noundef %9)
  ret void
}

; Function Attrs: mustprogress nounwind uwtable
define linkonce_odr hidden noundef ptr @_ZNK5zxing3RefINS_6qrcode12QRCodeReaderEEptEv(ptr noundef nonnull align 8 dereferenceable(8) %0) #2 comdat align 2 {
  %2 = alloca ptr, align 8
  store ptr %0, ptr %2, align 8
  %3 = load ptr, ptr %2, align 8
  %4 = getelementptr inbounds %"class.zxing::Ref.8", ptr %3, i32 0, i32 0
  %5 = load ptr, ptr %4, align 8
  ret ptr %5
}

; Function Attrs: mustprogress uwtable
define hidden void @_ZN2cv13wechat_qrcode10DecoderMgr6DecodeEN5zxing3RefINS2_12BinaryBitmapEEENS2_11DecodeHintsE(ptr dead_on_unwind noalias writable sret(%"class.std::vector.3") align 8 %0, ptr noundef nonnull align 8 dereferenceable(56) %1, ptr noundef %2, i8 %3) #4 align 2 personality ptr @__gxx_personality_v0 {
  %5 = alloca ptr, align 8
  %6 = alloca %"class.zxing::DecodeHints", align 1
  %7 = alloca ptr, align 8
  %8 = alloca ptr, align 8
  %9 = alloca %"class.zxing::Ref.54", align 8
  %10 = alloca %"class.zxing::DecodeHints", align 1
  %11 = alloca ptr, align 8
  %12 = alloca i32, align 4
  store ptr %0, ptr %5, align 8
  %13 = getelementptr inbounds %"class.zxing::DecodeHints", ptr %6, i32 0, i32 0
  store i8 %3, ptr %13, align 1
  store ptr %1, ptr %7, align 8
  store ptr %2, ptr %8, align 8
  %14 = load ptr, ptr %7, align 8
  %15 = getelementptr inbounds %"class.cv::wechat_qrcode::DecoderMgr", ptr %14, i32 0, i32 2
  %16 = call noundef ptr @_ZNK5zxing3RefINS_6qrcode12QRCodeReaderEEptEv(ptr noundef nonnull align 8 dereferenceable(8) %15)
  call void @_ZN5zxing3RefINS_12BinaryBitmapEEC2ERKS2_(ptr noundef nonnull align 8 dereferenceable(8) %9, ptr noundef nonnull align 8 dereferenceable(8) %2)
  call void @llvm.memcpy.p0.p0.i64(ptr align 1 %10, ptr align 1 %6, i64 1, i1 false)
  %17 = getelementptr inbounds %"class.zxing::DecodeHints", ptr %10, i32 0, i32 0
  %18 = load i8, ptr %17, align 1
  %19 = load ptr, ptr %16, align 8
  %20 = getelementptr inbounds ptr, ptr %19, i64 3
  %21 = load ptr, ptr %20, align 8
  invoke void %21(ptr dead_on_unwind writable sret(%"class.std::vector.3") align 8 %0, ptr noundef nonnull align 8 dereferenceable(148) %16, ptr noundef %9, i8 %18)
          to label %22 unwind label %23

22:                                               ; preds = %4
  call void @_ZN5zxing3RefINS_12BinaryBitmapEED2Ev(ptr noundef nonnull align 8 dereferenceable(8) %9) #3
  ret void

23:                                               ; preds = %4
  %24 = landingpad { ptr, i32 }
          cleanup
  %25 = extractvalue { ptr, i32 } %24, 0
  store ptr %25, ptr %11, align 8
  %26 = extractvalue { ptr, i32 } %24, 1
  store i32 %26, ptr %12, align 4
  call void @_ZN5zxing3RefINS_12BinaryBitmapEED2Ev(ptr noundef nonnull align 8 dereferenceable(8) %9) #3
  br label %27

27:                                               ; preds = %23
  %28 = load ptr, ptr %11, align 8
  %29 = load i32, ptr %12, align 4
  %30 = insertvalue { ptr, i32 } poison, ptr %28, 0
  %31 = insertvalue { ptr, i32 } %30, i32 %29, 1
  resume { ptr, i32 } %31
}