; Function Attrs: mustprogress uwtable
define hidden void @_ZN2cv13wechat_qrcode10DecoderMgr6DecodeEN5zxing3RefINS2_12BinaryBitmapEEENS2_11DecodeHintsE(ptr dead_on_unwind noalias writable sret(%"class.std::vector.3") align 8 %0, ptr nocapture noundef nonnull readonly align 8 dereferenceable(56) %1, ptr nocapture noundef readonly %2, i8 %3) local_unnamed_addr #3 align 2 personality ptr @__gxx_personality_v0 {
  %5 = alloca %"class.zxing::Ref.54", align 8
  %6 = getelementptr inbounds i8, ptr %1, i64 16
  %7 = load ptr, ptr %6, align 8
  %8 = load ptr, ptr %2, align 8
  %.not.i.i = icmp eq ptr %8, null
  br i1 %.not.i.i, label %_ZN5zxing3RefINS_12BinaryBitmapEEC2ERKS2_.exit, label %9

9:                                                ; preds = %4
  %10 = getelementptr inbounds i8, ptr %8, i64 8
  %11 = load i32, ptr %10, align 8
  %12 = add i32 %11, 1
  store i32 %12, ptr %10, align 8
  br label %_ZN5zxing3RefINS_12BinaryBitmapEEC2ERKS2_.exit

_ZN5zxing3RefINS_12BinaryBitmapEEC2ERKS2_.exit:   ; preds = %9, %4
  store ptr %8, ptr %5, align 8
  %13 = load ptr, ptr %7, align 8
  %14 = getelementptr inbounds i8, ptr %13, i64 24
  %15 = load ptr, ptr %14, align 8
  invoke void %15(ptr dead_on_unwind writable sret(%"class.std::vector.3") align 8 %0, ptr noundef nonnull align 8 dereferenceable(148) %7, ptr noundef nonnull %5, i8 %3)
          to label %16 unwind label %27

16:                                               ; preds = %_ZN5zxing3RefINS_12BinaryBitmapEEC2ERKS2_.exit
  %17 = load ptr, ptr %5, align 8
  %.not.i = icmp eq ptr %17, null
  br i1 %.not.i, label %_ZN5zxing3RefINS_12BinaryBitmapEED2Ev.exit, label %18

18:                                               ; preds = %16
  %19 = getelementptr inbounds i8, ptr %17, i64 8
  %20 = load i32, ptr %19, align 8
  %21 = add i32 %20, -1
  store i32 %21, ptr %19, align 8
  %22 = icmp eq i32 %21, 0
  br i1 %22, label %23, label %_ZN5zxing3RefINS_12BinaryBitmapEED2Ev.exit

23:                                               ; preds = %18
  store i32 -559026175, ptr %19, align 8
  %24 = load ptr, ptr %17, align 8
  %25 = getelementptr inbounds i8, ptr %24, i64 8
  %26 = load ptr, ptr %25, align 8
  call void %26(ptr noundef nonnull align 8 dereferenceable(12) %17) #15
  br label %_ZN5zxing3RefINS_12BinaryBitmapEED2Ev.exit

_ZN5zxing3RefINS_12BinaryBitmapEED2Ev.exit:       ; preds = %16, %18, %23
  ret void

27:                                               ; preds = %_ZN5zxing3RefINS_12BinaryBitmapEEC2ERKS2_.exit
  %28 = landingpad { ptr, i32 }
          cleanup
  %29 = load ptr, ptr %5, align 8
  %.not.i3 = icmp eq ptr %29, null
  br i1 %.not.i3, label %_ZN5zxing3RefINS_12BinaryBitmapEED2Ev.exit4, label %30

30:                                               ; preds = %27
  %31 = getelementptr inbounds i8, ptr %29, i64 8
  %32 = load i32, ptr %31, align 8
  %33 = add i32 %32, -1
  store i32 %33, ptr %31, align 8
  %34 = icmp eq i32 %33, 0
  br i1 %34, label %35, label %_ZN5zxing3RefINS_12BinaryBitmapEED2Ev.exit4

35:                                               ; preds = %30
  store i32 -559026175, ptr %31, align 8
  %36 = load ptr, ptr %29, align 8
  %37 = getelementptr inbounds i8, ptr %36, i64 8
  %38 = load ptr, ptr %37, align 8
  call void %38(ptr noundef nonnull align 8 dereferenceable(12) %29) #15
  br label %_ZN5zxing3RefINS_12BinaryBitmapEED2Ev.exit4

_ZN5zxing3RefINS_12BinaryBitmapEED2Ev.exit4:      ; preds = %27, %30, %35
  resume { ptr, i32 } %28
}